target datalayout = "e-m:e-p270:32:32-p271:32:32-p272:64:64-i64:64-i128:128-f80:128-n8:16:32:64-S128"
target triple = "x86_64-pc-linux-gnu"

@.str.3 = private unnamed_addr constant [9 x i8] c"MSCF\00\00\00\00\00", align 1

; Function Attrs: nounwind uwtable
define internal i32 @find_cab_magic(ptr noundef %0) #0 {
  %2 = alloca i32, align 4
  %3 = alloca ptr, align 8
  store ptr %0, ptr %3, align 8, !tbaa !33
  %4 = load ptr, ptr %3, align 8, !tbaa !33
  %5 = getelementptr inbounds i8, ptr %4, i64 4
  %6 = load i8, ptr %5, align 1, !tbaa !34
  %7 = sext i8 %6 to i32
  switch i32 %7, label %18 [
    i32 0, label %8
    i32 70, label %14
    i32 67, label %15
    i32 83, label %16
    i32 77, label %17
  ]

8:                                                ; preds = %1
  %9 = load ptr, ptr %3, align 8, !tbaa !33
  %10 = call i32 @memcmp(ptr noundef %9, ptr noundef @.str.3, i64 noundef 8) #13
  %11 = icmp eq i32 %10, 0
  br i1 %11, label %12, label %13

12:                                               ; preds = %8
  store i32 0, ptr %2, align 4
  br label %19

13:                                               ; preds = %8
  store i32 5, ptr %2, align 4
  br label %19

14:                                               ; preds = %1
  store i32 1, ptr %2, align 4
  br label %19

15:                                               ; preds = %1
  store i32 2, ptr %2, align 4
  br label %19

16:                                               ; preds = %1
  store i32 3, ptr %2, align 4
  br label %19

17:                                               ; preds = %1
  store i32 4, ptr %2, align 4
  br label %19

18:                                               ; preds = %1
  store i32 5, ptr %2, align 4
  br label %19

19:                                               ; preds = %18, %17, %16, %15, %14, %13, %12
  %20 = load i32, ptr %2, align 4
  ret i32 %20
}

; Function Attrs: nounwind uwtable
define internal i32 @archive_read_format_cab_bid(ptr noundef %0, i32 noundef %1) #0 {
  %3 = alloca i32, align 4
  %4 = alloca ptr, align 8
  %5 = alloca i32, align 4
  %6 = alloca ptr, align 8
  %7 = alloca i64, align 8
  %8 = alloca i64, align 8
  %9 = alloca i64, align 8
  %10 = alloca i32, align 4
  %11 = alloca ptr, align 8
  %12 = alloca i32, align 4
  store ptr %0, ptr %4, align 8, !tbaa !9
  store i32 %1, ptr %5, align 4, !tbaa !11
  call void @llvm.lifetime.start.p0(i64 8, ptr %6) #11
  call void @llvm.lifetime.start.p0(i64 8, ptr %7) #11
  call void @llvm.lifetime.start.p0(i64 8, ptr %8) #11
  call void @llvm.lifetime.start.p0(i64 8, ptr %9) #11
  %13 = load i32, ptr %5, align 4, !tbaa !11
  %14 = icmp sgt i32 %13, 64
  br i1 %14, label %15, label %16

15:                                               ; preds = %2
  store i32 -1, ptr %3, align 4
  store i32 1, ptr %10, align 4
  br label %92

16:                                               ; preds = %2
  %17 = load ptr, ptr %4, align 8, !tbaa !9
  %18 = call ptr @__archive_read_ahead(ptr noundef %17, i64 noundef 8, ptr noundef null)
  store ptr %18, ptr %6, align 8, !tbaa !33
  %19 = icmp eq ptr %18, null
  br i1 %19, label %20, label %21

20:                                               ; preds = %16
  store i32 -1, ptr %3, align 4
  store i32 1, ptr %10, align 4
  br label %92

21:                                               ; preds = %16
  %22 = load ptr, ptr %6, align 8, !tbaa !33
  %23 = call i32 @memcmp(ptr noundef %22, ptr noundef @.str.3, i64 noundef 8) #13
  %24 = icmp eq i32 %23, 0
  br i1 %24, label %25, label %26

25:                                               ; preds = %21
  store i32 64, ptr %3, align 4
  store i32 1, ptr %10, align 4
  br label %92

26:                                               ; preds = %21
  %27 = load ptr, ptr %6, align 8, !tbaa !33
  %28 = getelementptr inbounds i8, ptr %27, i64 0
  %29 = load i8, ptr %28, align 1, !tbaa !34
  %30 = sext i8 %29 to i32
  %31 = icmp eq i32 %30, 77
  br i1 %31, label %32, label %91

32:                                               ; preds = %26
  %33 = load ptr, ptr %6, align 8, !tbaa !33
  %34 = getelementptr inbounds i8, ptr %33, i64 1
  %35 = load i8, ptr %34, align 1, !tbaa !34
  %36 = sext i8 %35 to i32
  %37 = icmp eq i32 %36, 90
  br i1 %37, label %38, label %91

38:                                               ; preds = %32
  store i64 0, ptr %8, align 8, !tbaa !35
  store i64 4096, ptr %9, align 8, !tbaa !35
  br label %39

39:                                               ; preds = %89, %87, %38
  %40 = load i64, ptr %8, align 8, !tbaa !35
  %41 = icmp slt i64 %40, 131072
  br i1 %41, label %42, label %90

42:                                               ; preds = %39
  call void @llvm.lifetime.start.p0(i64 8, ptr %11) #11
  %43 = load ptr, ptr %4, align 8, !tbaa !9
  %44 = load i64, ptr %8, align 8, !tbaa !35
  %45 = load i64, ptr %9, align 8, !tbaa !35
  %46 = add nsw i64 %44, %45
  %47 = call ptr @__archive_read_ahead(ptr noundef %43, i64 noundef %46, ptr noundef %7)
  store ptr %47, ptr %11, align 8, !tbaa !33
  %48 = load ptr, ptr %11, align 8, !tbaa !33
  %49 = icmp eq ptr %48, null
  br i1 %49, label %50, label %57

50:                                               ; preds = %42
  %51 = load i64, ptr %9, align 8, !tbaa !35
  %52 = ashr i64 %51, 1
  store i64 %52, ptr %9, align 8, !tbaa !35
  %53 = load i64, ptr %9, align 8, !tbaa !35
  %54 = icmp slt i64 %53, 128
  br i1 %54, label %55, label %56

55:                                               ; preds = %50
  store i32 0, ptr %3, align 4
  store i32 1, ptr %10, align 4
  br label %87

56:                                               ; preds = %50
  store i32 2, ptr %10, align 4
  br label %87, !llvm.loop !36

57:                                               ; preds = %42
  %58 = load ptr, ptr %11, align 8, !tbaa !33
  %59 = load i64, ptr %8, align 8, !tbaa !35
  %60 = getelementptr inbounds i8, ptr %58, i64 %59
  store ptr %60, ptr %6, align 8, !tbaa !33
  br label %61

61:                                               ; preds = %80, %57
  %62 = load ptr, ptr %6, align 8, !tbaa !33
  %63 = getelementptr inbounds i8, ptr %62, i64 8
  %64 = load ptr, ptr %11, align 8, !tbaa !33
  %65 = load i64, ptr %7, align 8, !tbaa !35
  %66 = getelementptr inbounds i8, ptr %64, i64 %65
  %67 = icmp ult ptr %63, %66
  br i1 %67, label %68, label %81

68:                                               ; preds = %61
  call void @llvm.lifetime.start.p0(i64 4, ptr %12) #11
  %69 = load ptr, ptr %6, align 8, !tbaa !33
  %70 = call i32 @find_cab_magic(ptr noundef %69)
  store i32 %70, ptr %12, align 4, !tbaa !11
  %71 = icmp eq i32 %70, 0
  br i1 %71, label %72, label %73

72:                                               ; preds = %68
  store i32 64, ptr %3, align 4
  store i32 1, ptr %10, align 4
  br label %78

73:                                               ; preds = %68
  %74 = load i32, ptr %12, align 4, !tbaa !11
  %75 = load ptr, ptr %6, align 8, !tbaa !33
  %76 = sext i32 %74 to i64
  %77 = getelementptr inbounds i8, ptr %75, i64 %76
  store ptr %77, ptr %6, align 8, !tbaa !33
  store i32 0, ptr %10, align 4
  br label %78

78:                                               ; preds = %73, %72
  call void @llvm.lifetime.end.p0(i64 4, ptr %12) #11
  %79 = load i32, ptr %10, align 4
  switch i32 %79, label %87 [
    i32 0, label %80
  ]

80:                                               ; preds = %78
  br label %61, !llvm.loop !38

81:                                               ; preds = %61
  %82 = load ptr, ptr %6, align 8, !tbaa !33
  %83 = load ptr, ptr %11, align 8, !tbaa !33
  %84 = ptrtoint ptr %82 to i64
  %85 = ptrtoint ptr %83 to i64
  %86 = sub i64 %84, %85
  store i64 %86, ptr %8, align 8, !tbaa !35
  store i32 0, ptr %10, align 4
  br label %87

87:                                               ; preds = %81, %78, %56, %55
  call void @llvm.lifetime.end.p0(i64 8, ptr %11) #11
  %88 = load i32, ptr %10, align 4
  switch i32 %88, label %92 [
    i32 0, label %89
    i32 2, label %39
  ]

89:                                               ; preds = %87
  br label %39, !llvm.loop !36

90:                                               ; preds = %39
  br label %91

91:                                               ; preds = %90, %32, %26
  store i32 0, ptr %3, align 4
  store i32 1, ptr %10, align 4
  br label %92

92:                                               ; preds = %91, %87, %25, %20, %15
  call void @llvm.lifetime.end.p0(i64 8, ptr %9) #11
  call void @llvm.lifetime.end.p0(i64 8, ptr %8) #11
  call void @llvm.lifetime.end.p0(i64 8, ptr %7) #11
  call void @llvm.lifetime.end.p0(i64 8, ptr %6) #11
  %93 = load i32, ptr %3, align 4
  ret i32 %93
}