; Function Attrs: nounwind uwtable
define internal range(i32 -1, 65) i32 @archive_read_format_cab_bid(ptr noundef %0, i32 noundef %1) #0 {
  %3 = alloca i64, align 8
  call void @llvm.lifetime.start.p0(i64 8, ptr nonnull %3) #18
  %4 = icmp sgt i32 %1, 64
  br i1 %4, label %.thread, label %5

5:                                                ; preds = %2
  %6 = tail call ptr @__archive_read_ahead(ptr noundef %0, i64 noundef 8, ptr noundef null) #18
  %7 = icmp eq ptr %6, null
  br i1 %7, label %.thread, label %8

8:                                                ; preds = %5
  %bcmp = tail call i32 @bcmp(ptr noundef nonnull dereferenceable(8) %6, ptr noundef nonnull dereferenceable(8) @.str.3, i64 8)
  %9 = icmp eq i32 %bcmp, 0
  br i1 %9, label %.thread, label %10

10:                                               ; preds = %8
  %11 = load i8, ptr %6, align 1, !tbaa !4
  %12 = icmp eq i8 %11, 77
  br i1 %12, label %13, label %.thread

13:                                               ; preds = %10
  %14 = getelementptr inbounds nuw i8, ptr %6, i64 1
  %15 = load i8, ptr %14, align 1, !tbaa !4
  %16 = icmp eq i8 %15, 90
  br i1 %16, label %.preheader, label %.thread

.preheader:                                       ; preds = %13, %43
  %.02749 = phi i64 [ %.128, %43 ], [ 4096, %13 ]
  %.02948 = phi i64 [ %.130, %43 ], [ 0, %13 ]
  %17 = add nsw i64 %.02749, %.02948
  %18 = call ptr @__archive_read_ahead(ptr noundef %0, i64 noundef %17, ptr noundef nonnull %3) #18
  %19 = icmp eq ptr %18, null
  br i1 %19, label %20, label %23

20:                                               ; preds = %.preheader
  %21 = lshr i64 %.02749, 1
  %22 = icmp samesign ult i64 %.02749, 256
  br i1 %22, label %.thread, label %43

23:                                               ; preds = %.preheader
  %24 = getelementptr inbounds i8, ptr %18, i64 %.02948
  %25 = load i64, ptr %3, align 8, !tbaa !7
  %26 = getelementptr inbounds i8, ptr %18, i64 %25
  %27 = getelementptr inbounds nuw i8, ptr %24, i64 8
  %28 = icmp ult ptr %27, %26
  br i1 %28, label %.lr.ph, label %._crit_edge

.lr.ph:                                           ; preds = %23, %find_cab_magic.exit
  %.02347 = phi ptr [ %37, %find_cab_magic.exit ], [ %24, %23 ]
  %29 = getelementptr inbounds nuw i8, ptr %.02347, i64 4
  %30 = load i8, ptr %29, align 1, !tbaa !4
  switch i8 %30, label %36 [
    i8 0, label %31
    i8 70, label %find_cab_magic.exit
    i8 67, label %33
    i8 83, label %34
    i8 77, label %35
  ]

31:                                               ; preds = %.lr.ph
  %bcmp.i = call i32 @bcmp(ptr noundef nonnull readonly dereferenceable(8) %.02347, ptr noundef nonnull dereferenceable(8) @.str.3, i64 8)
  %32 = icmp eq i32 %bcmp.i, 0
  br i1 %32, label %.thread, label %find_cab_magic.exit

33:                                               ; preds = %.lr.ph
  br label %find_cab_magic.exit

34:                                               ; preds = %.lr.ph
  br label %find_cab_magic.exit

35:                                               ; preds = %.lr.ph
  br label %find_cab_magic.exit

36:                                               ; preds = %.lr.ph
  br label %find_cab_magic.exit

find_cab_magic.exit:                              ; preds = %31, %.lr.ph, %33, %34, %35, %36
  %.0.i = phi i64 [ 5, %36 ], [ 4, %35 ], [ 3, %34 ], [ 2, %33 ], [ 5, %31 ], [ 1, %.lr.ph ]
  %37 = getelementptr inbounds nuw i8, ptr %.02347, i64 %.0.i
  %38 = getelementptr inbounds nuw i8, ptr %37, i64 8
  %39 = icmp ult ptr %38, %26
  br i1 %39, label %.lr.ph, label %._crit_edge, !llvm.loop !9

._crit_edge:                                      ; preds = %find_cab_magic.exit, %23
  %.023.lcssa = phi ptr [ %24, %23 ], [ %37, %find_cab_magic.exit ]
  %40 = ptrtoint ptr %.023.lcssa to i64
  %41 = ptrtoint ptr %18 to i64
  %42 = sub i64 %40, %41
  br label %43

43:                                               ; preds = %20, %._crit_edge
  %.130 = phi i64 [ %42, %._crit_edge ], [ %.02948, %20 ]
  %.128 = phi i64 [ %.02749, %._crit_edge ], [ %21, %20 ]
  %44 = icmp slt i64 %.130, 131072
  br i1 %44, label %.preheader, label %.thread

.thread:                                          ; preds = %20, %43, %31, %10, %13, %8, %5, %2
  %.0 = phi i32 [ -1, %2 ], [ -1, %5 ], [ 64, %8 ], [ 0, %13 ], [ 0, %10 ], [ 64, %31 ], [ 0, %43 ], [ 0, %20 ]
  call void @llvm.lifetime.end.p0(i64 8, ptr nonnull %3) #18
  ret i32 %.0
}